target datalayout = "e-m:e-p270:32:32-p271:32:32-p272:64:64-i64:64-i128:128-f80:128-n8:16:32:64-S128"
target triple = "x86_64-pc-linux-gnu"

%struct._zend_stack = type { i32, i32, i32, ptr }
%struct._zend_php_scanner_globals = type { ptr, ptr, i32, ptr, ptr, ptr, ptr, ptr, i32, %struct._zend_stack, %struct._zend_ptr_stack, %struct._zend_stack, i8, i32, i8, ptr, i64, ptr, i64, ptr, ptr, ptr, i32, ptr, ptr }
%struct._zend_ptr_stack = type { i32, i32, ptr, ptr, i8 }
%struct._zend_heredoc_label = type { ptr, i32, i32, i8 }

@language_scanner_globals = global %struct._zend_php_scanner_globals zeroinitializer, align 8

; Function Attrs: nounwind uwtable
define internal void @copy_heredoc_label_stack(ptr noundef %0) #0 {
  %2 = alloca ptr, align 8
  %3 = alloca ptr, align 8
  %4 = alloca ptr, align 8
  %5 = alloca ptr, align 8
  %6 = alloca ptr, align 8
  store ptr %0, ptr %4, align 8
  %7 = load ptr, ptr %4, align 8
  store ptr %7, ptr %5, align 8
  %8 = call noalias ptr @_emalloc_24()
  store ptr %8, ptr %6, align 8
  %9 = load ptr, ptr %6, align 8
  %10 = load ptr, ptr %5, align 8
  call void @llvm.memcpy.p0.p0.i64(ptr align 8 %9, ptr align 8 %10, i64 24, i1 false)
  %11 = load ptr, ptr %5, align 8
  %12 = getelementptr inbounds %struct._zend_heredoc_label, ptr %11, i32 0, i32 0
  %13 = load ptr, ptr %12, align 8
  %14 = load ptr, ptr %5, align 8
  %15 = getelementptr inbounds %struct._zend_heredoc_label, ptr %14, i32 0, i32 1
  %16 = load i32, ptr %15, align 8
  %17 = sext i32 %16 to i64
  %18 = call noalias ptr @_estrndup(ptr noundef %13, i64 noundef %17)
  %19 = load ptr, ptr %6, align 8
  %20 = getelementptr inbounds %struct._zend_heredoc_label, ptr %19, i32 0, i32 0
  store ptr %18, ptr %20, align 8
  %21 = load ptr, ptr %6, align 8
  store ptr getelementptr inbounds (%struct._zend_php_scanner_globals, ptr @language_scanner_globals, i32 0, i32 10), ptr %2, align 8
  store ptr %21, ptr %3, align 8
  %22 = load ptr, ptr %2, align 8
  %23 = load i32, ptr %22, align 8
  %24 = add nsw i32 %23, 1
  %25 = load ptr, ptr %2, align 8
  %26 = getelementptr inbounds %struct._zend_ptr_stack, ptr %25, i32 0, i32 1
  %27 = load i32, ptr %26, align 4
  %28 = icmp sgt i32 %24, %27
  br i1 %28, label %29, label %78

29:                                               ; preds = %1
  br label %30

30:                                               ; preds = %30, %29
  %31 = load ptr, ptr %2, align 8
  %32 = getelementptr inbounds %struct._zend_ptr_stack, ptr %31, i32 0, i32 1
  %33 = load i32, ptr %32, align 4
  %34 = add nsw i32 %33, 64
  store i32 %34, ptr %32, align 4
  %35 = load ptr, ptr %2, align 8
  %36 = load i32, ptr %35, align 8
  %37 = add nsw i32 %36, 1
  %38 = load ptr, ptr %2, align 8
  %39 = getelementptr inbounds %struct._zend_ptr_stack, ptr %38, i32 0, i32 1
  %40 = load i32, ptr %39, align 4
  %41 = icmp sgt i32 %37, %40
  br i1 %41, label %30, label %42

42:                                               ; preds = %30
  %43 = load ptr, ptr %2, align 8
  %44 = getelementptr inbounds %struct._zend_ptr_stack, ptr %43, i32 0, i32 4
  %45 = load i8, ptr %44, align 8
  %46 = trunc i8 %45 to i1
  br i1 %46, label %47, label %56

47:                                               ; preds = %42
  %48 = load ptr, ptr %2, align 8
  %49 = getelementptr inbounds %struct._zend_ptr_stack, ptr %48, i32 0, i32 2
  %50 = load ptr, ptr %49, align 8
  %51 = load ptr, ptr %2, align 8
  %52 = getelementptr inbounds %struct._zend_ptr_stack, ptr %51, i32 0, i32 1
  %53 = load i32, ptr %52, align 4
  %54 = sext i32 %53 to i64
  %55 = call ptr @_safe_realloc(ptr noundef %50, i64 noundef 8, i64 noundef %54, i64 noundef 0) #12
  br label %65

56:                                               ; preds = %42
  %57 = load ptr, ptr %2, align 8
  %58 = getelementptr inbounds %struct._zend_ptr_stack, ptr %57, i32 0, i32 2
  %59 = load ptr, ptr %58, align 8
  %60 = load ptr, ptr %2, align 8
  %61 = getelementptr inbounds %struct._zend_ptr_stack, ptr %60, i32 0, i32 1
  %62 = load i32, ptr %61, align 4
  %63 = sext i32 %62 to i64
  %64 = call ptr @_safe_erealloc(ptr noundef %59, i64 noundef 8, i64 noundef %63, i64 noundef 0) #12
  br label %65

65:                                               ; preds = %56, %47
  %66 = phi ptr [ %55, %47 ], [ %64, %56 ]
  %67 = load ptr, ptr %2, align 8
  %68 = getelementptr inbounds %struct._zend_ptr_stack, ptr %67, i32 0, i32 2
  store ptr %66, ptr %68, align 8
  %69 = load ptr, ptr %2, align 8
  %70 = getelementptr inbounds %struct._zend_ptr_stack, ptr %69, i32 0, i32 2
  %71 = load ptr, ptr %70, align 8
  %72 = load ptr, ptr %2, align 8
  %73 = load i32, ptr %72, align 8
  %74 = sext i32 %73 to i64
  %75 = getelementptr inbounds ptr, ptr %71, i64 %74
  %76 = load ptr, ptr %2, align 8
  %77 = getelementptr inbounds %struct._zend_ptr_stack, ptr %76, i32 0, i32 3
  store ptr %75, ptr %77, align 8
  br label %78

78:                                               ; preds = %65, %1
  %79 = load ptr, ptr %2, align 8
  %80 = load i32, ptr %79, align 8
  %81 = add nsw i32 %80, 1
  store i32 %81, ptr %79, align 8
  %82 = load ptr, ptr %3, align 8
  %83 = load ptr, ptr %2, align 8
  %84 = getelementptr inbounds %struct._zend_ptr_stack, ptr %83, i32 0, i32 3
  %85 = load ptr, ptr %84, align 8
  %86 = getelementptr inbounds ptr, ptr %85, i32 1
  store ptr %86, ptr %84, align 8
  store ptr %82, ptr %85, align 8
  ret void
}