; Function Attrs: nounwind uwtable
define internal void @copy_heredoc_label_stack(ptr nocapture noundef readonly %0) #0 {
  %2 = tail call noalias ptr @_emalloc_24() #16
  tail call void @llvm.memcpy.p0.p0.i64(ptr noundef nonnull align 8 dereferenceable(24) %2, ptr noundef nonnull align 8 dereferenceable(24) %0, i64 24, i1 false)
  %3 = load ptr, ptr %0, align 8
  %4 = getelementptr inbounds i8, ptr %0, i64 8
  %5 = load i32, ptr %4, align 8
  %6 = sext i32 %5 to i64
  %7 = tail call noalias ptr @_estrndup(ptr noundef %3, i64 noundef %6) #16
  store ptr %7, ptr %2, align 8
  %8 = load i32, ptr getelementptr inbounds (%struct._zend_php_scanner_globals, ptr @language_scanner_globals, i64 0, i32 10), align 8
  %9 = load i32, ptr getelementptr inbounds (%struct._zend_php_scanner_globals, ptr @language_scanner_globals, i64 0, i32 10, i32 1), align 4
  %.not = icmp slt i32 %8, %9
  br i1 %.not, label %._crit_edge, label %.preheader

._crit_edge:                                      ; preds = %1
  %.pre = load ptr, ptr getelementptr inbounds (%struct._zend_php_scanner_globals, ptr @language_scanner_globals, i64 0, i32 10, i32 3), align 8
  br label %26

.preheader:                                       ; preds = %1, %.preheader
  %10 = phi i32 [ %11, %.preheader ], [ %9, %1 ]
  %11 = add nsw i32 %10, 64
  %.not24 = icmp slt i32 %8, %11
  br i1 %.not24, label %12, label %.preheader

12:                                               ; preds = %.preheader
  store i32 %11, ptr getelementptr inbounds (%struct._zend_php_scanner_globals, ptr @language_scanner_globals, i64 0, i32 10, i32 1), align 4
  %13 = load i8, ptr getelementptr inbounds (%struct._zend_php_scanner_globals, ptr @language_scanner_globals, i64 0, i32 10, i32 4), align 8
  %14 = and i8 %13, 1
  %.not25 = icmp eq i8 %14, 0
  %15 = load ptr, ptr getelementptr inbounds (%struct._zend_php_scanner_globals, ptr @language_scanner_globals, i64 0, i32 10, i32 2), align 8
  %16 = sext i32 %11 to i64
  br i1 %.not25, label %19, label %17

17:                                               ; preds = %12
  %18 = tail call ptr @_safe_realloc(ptr noundef %15, i64 noundef 8, i64 noundef %16, i64 noundef 0) #16
  br label %21

19:                                               ; preds = %12
  %20 = tail call ptr @_safe_erealloc(ptr noundef %15, i64 noundef 8, i64 noundef %16, i64 noundef 0) #16
  br label %21

21:                                               ; preds = %19, %17
  %22 = phi ptr [ %18, %17 ], [ %20, %19 ]
  store ptr %22, ptr getelementptr inbounds (%struct._zend_php_scanner_globals, ptr @language_scanner_globals, i64 0, i32 10, i32 2), align 8
  %23 = load i32, ptr getelementptr inbounds (%struct._zend_php_scanner_globals, ptr @language_scanner_globals, i64 0, i32 10), align 8
  %24 = sext i32 %23 to i64
  %25 = getelementptr inbounds ptr, ptr %22, i64 %24
  br label %26

26:                                               ; preds = %._crit_edge, %21
  %27 = phi ptr [ %25, %21 ], [ %.pre, %._crit_edge ]
  %28 = phi i32 [ %23, %21 ], [ %8, %._crit_edge ]
  %29 = add nsw i32 %28, 1
  store i32 %29, ptr getelementptr inbounds (%struct._zend_php_scanner_globals, ptr @language_scanner_globals, i64 0, i32 10), align 8
  %30 = getelementptr inbounds i8, ptr %27, i64 8
  store ptr %30, ptr getelementptr inbounds (%struct._zend_php_scanner_globals, ptr @language_scanner_globals, i64 0, i32 10, i32 3), align 8
  store ptr %2, ptr %27, align 8
  ret void
}